target datalayout = "e-m:e-p270:32:32-p271:32:32-p272:64:64-i64:64-i128:128-f80:128-n8:16:32:64-S128"
target triple = "x86_64-pc-linux-gnu"

%struct.ident_t = type { i32, i32, i32, i32, ptr }
%"class.open3d::t::geometry::kernel::TArrayIndexer.112" = type { ptr, i64, i64, [4 x i64] }
%class.anon.114 = type { i32, %"class.open3d::t::geometry::kernel::TArrayIndexer.112", float, float }

@1 = private unnamed_addr constant %struct.ident_t { i32 0, i32 514, i32 0, i32 22, ptr @0 }, align 8

; Function Attrs: inlinehint mustprogress nounwind ssp uwtable
define linkonce_odr hidden void @_ZNK6open3d1t8geometry6kernel13TArrayIndexerIlE15CoordToWorkloadEllPl(ptr noundef nonnull align 8 dereferenceable(56) %0, i64 noundef %1, i64 noundef %2, ptr noundef %3) #6 comdat align 2 {
  %5 = alloca ptr, align 8
  %6 = alloca i64, align 8
  %7 = alloca i64, align 8
  %8 = alloca ptr, align 8
  store ptr %0, ptr %5, align 8, !tbaa !810
  store i64 %1, ptr %6, align 8, !tbaa !21
  store i64 %2, ptr %7, align 8, !tbaa !21
  store ptr %3, ptr %8, align 8, !tbaa !19
  %9 = load ptr, ptr %5, align 8
  %10 = load i64, ptr %7, align 8, !tbaa !21
  %11 = getelementptr inbounds nuw %"class.open3d::t::geometry::kernel::TArrayIndexer.112", ptr %9, i32 0, i32 3
  %12 = getelementptr inbounds [4 x i64], ptr %11, i64 0, i64 1
  %13 = load i64, ptr %12, align 8, !tbaa !21
  %14 = mul nsw i64 %10, %13
  %15 = load i64, ptr %6, align 8, !tbaa !21
  %16 = add nsw i64 %14, %15
  %17 = load ptr, ptr %8, align 8, !tbaa !19
  store i64 %16, ptr %17, align 8, !tbaa !21
  ret void
}

; Function Attrs: inlinehint mustprogress ssp uwtable
define linkonce_odr hidden noundef ptr @_ZNK6open3d1t8geometry6kernel13TArrayIndexerIlE10GetDataPtrIfEEPT_ll(ptr noundef nonnull align 8 dereferenceable(56) %0, i64 noundef %1, i64 noundef %2) #2 comdat align 2 {
  %4 = alloca ptr, align 8
  %5 = alloca i64, align 8
  %6 = alloca i64, align 8
  %7 = alloca i64, align 8
  store ptr %0, ptr %4, align 8, !tbaa !810
  store i64 %1, ptr %5, align 8, !tbaa !21
  store i64 %2, ptr %6, align 8, !tbaa !21
  %8 = load ptr, ptr %4, align 8
  call void @llvm.lifetime.start.p0(i64 8, ptr %7) #25
  %9 = load i64, ptr %5, align 8, !tbaa !21
  %10 = load i64, ptr %6, align 8, !tbaa !21
  call void @_ZNK6open3d1t8geometry6kernel13TArrayIndexerIlE15CoordToWorkloadEllPl(ptr noundef nonnull align 8 dereferenceable(56) %8, i64 noundef %9, i64 noundef %10, ptr noundef %7)
  %11 = getelementptr inbounds nuw %"class.open3d::t::geometry::kernel::TArrayIndexer.112", ptr %8, i32 0, i32 0
  %12 = load ptr, ptr %11, align 8, !tbaa !817
  %13 = load i64, ptr %7, align 8, !tbaa !21
  %14 = getelementptr inbounds nuw %"class.open3d::t::geometry::kernel::TArrayIndexer.112", ptr %8, i32 0, i32 1
  %15 = load i64, ptr %14, align 8, !tbaa !814
  %16 = mul nsw i64 %13, %15
  %17 = getelementptr inbounds i8, ptr %12, i64 %16
  call void @llvm.lifetime.end.p0(i64 8, ptr %7) #25
  ret ptr %17
}

; Function Attrs: noinline noreturn nounwind ssp uwtable
define linkonce_odr hidden void @__clang_call_terminate(ptr noundef %0) #23 comdat {
  %2 = call ptr @__cxa_begin_catch(ptr %0) #25
  call void @_ZSt9terminatev() #32
  unreachable
}

; Function Attrs: inlinehint mustprogress ssp uwtable
define internal void @"_ZZN6open3d1t8geometry6kernel10voxel_grid16EstimateRangeCPUERKNS_4core6TensorERS5_S7_S7_iiilfffS8_ENK3$_1clEl"(ptr noundef nonnull align 8 dereferenceable(72) %0, i64 noundef %1) #2 align 2 {
  %3 = alloca ptr, align 8
  %4 = alloca i64, align 8
  %5 = alloca i32, align 4
  %6 = alloca i32, align 4
  %7 = alloca ptr, align 8
  store ptr %0, ptr %3, align 8, !tbaa !32
  store i64 %1, ptr %4, align 8, !tbaa !21
  %8 = load ptr, ptr %3, align 8
  call void @llvm.lifetime.start.p0(i64 4, ptr %5) #25
  %9 = load i64, ptr %4, align 8, !tbaa !21
  %10 = getelementptr inbounds nuw %class.anon.114, ptr %8, i32 0, i32 0
  %11 = load i32, ptr %10, align 8, !tbaa !806
  %12 = sext i32 %11 to i64
  %13 = sdiv i64 %9, %12
  %14 = trunc i64 %13 to i32
  store i32 %14, ptr %5, align 4, !tbaa !9
  call void @llvm.lifetime.start.p0(i64 4, ptr %6) #25
  %15 = load i64, ptr %4, align 8, !tbaa !21
  %16 = getelementptr inbounds nuw %class.anon.114, ptr %8, i32 0, i32 0
  %17 = load i32, ptr %16, align 8, !tbaa !806
  %18 = sext i32 %17 to i64
  %19 = srem i64 %15, %18
  %20 = trunc i64 %19 to i32
  store i32 %20, ptr %6, align 4, !tbaa !9
  call void @llvm.lifetime.start.p0(i64 8, ptr %7) #25
  %21 = getelementptr inbounds nuw %class.anon.114, ptr %8, i32 0, i32 1
  %22 = load i32, ptr %6, align 4, !tbaa !9
  %23 = sext i32 %22 to i64
  %24 = load i32, ptr %5, align 4, !tbaa !9
  %25 = sext i32 %24 to i64
  %26 = call noundef ptr @_ZNK6open3d1t8geometry6kernel13TArrayIndexerIlE10GetDataPtrIfEEPT_ll(ptr noundef nonnull align 8 dereferenceable(56) %21, i64 noundef %23, i64 noundef %25)
  store ptr %26, ptr %7, align 8, !tbaa !17
  %27 = getelementptr inbounds nuw %class.anon.114, ptr %8, i32 0, i32 2
  %28 = load float, ptr %27, align 8, !tbaa !808
  %29 = load ptr, ptr %7, align 8, !tbaa !17
  %30 = getelementptr inbounds float, ptr %29, i64 0
  store float %28, ptr %30, align 4, !tbaa !11
  %31 = getelementptr inbounds nuw %class.anon.114, ptr %8, i32 0, i32 3
  %32 = load float, ptr %31, align 4, !tbaa !809
  %33 = load ptr, ptr %7, align 8, !tbaa !17
  %34 = getelementptr inbounds float, ptr %33, i64 1
  store float %32, ptr %34, align 4, !tbaa !11
  call void @llvm.lifetime.end.p0(i64 8, ptr %7) #25
  call void @llvm.lifetime.end.p0(i64 4, ptr %6) #25
  call void @llvm.lifetime.end.p0(i64 4, ptr %5) #25
  ret void
}

; Function Attrs: alwaysinline norecurse nounwind ssp uwtable
define internal void @"_ZN6open3d4core15ParallelForCPU_IZNS_1t8geometry6kernel10voxel_grid16EstimateRangeCPUERKNS0_6TensorERS6_S8_S8_iiilfffS9_E3$_1EEvRKNS0_6DeviceElRKT_.omp_outlined"(ptr noalias noundef %0, ptr noalias noundef %1, ptr noundef nonnull align 8 dereferenceable(8) %2, ptr noundef nonnull align 8 dereferenceable(72) %3) #24 personality ptr @__gxx_personality_v0 {
  %5 = alloca ptr, align 8
  %6 = alloca ptr, align 8
  %7 = alloca ptr, align 8
  %8 = alloca ptr, align 8
  %9 = alloca ptr, align 8
  %10 = alloca i64, align 8
  %11 = alloca i64, align 8
  %12 = alloca i64, align 8
  %13 = alloca i64, align 8
  %14 = alloca i64, align 8
  %15 = alloca i64, align 8
  %16 = alloca i64, align 8
  %17 = alloca i32, align 4
  %18 = alloca i64, align 8
  store ptr %0, ptr %5, align 8, !tbaa !15
  store ptr %1, ptr %6, align 8, !tbaa !15
  store ptr %2, ptr %7, align 8, !tbaa !19
  store ptr %3, ptr %8, align 8, !tbaa !32
  %19 = load ptr, ptr %7, align 8, !tbaa !19
  %20 = load ptr, ptr %8, align 8, !tbaa !32
  store ptr %20, ptr %9, align 8
  call void @llvm.lifetime.start.p0(i64 8, ptr %10) #25
  call void @llvm.lifetime.start.p0(i64 8, ptr %11) #25
  %21 = load i64, ptr %19, align 8, !tbaa !21
  store i64 %21, ptr %11, align 8, !tbaa !21
  call void @llvm.lifetime.start.p0(i64 8, ptr %12) #25
  %22 = load i64, ptr %11, align 8, !tbaa !21
  %23 = sub nsw i64 %22, 0
  %24 = sdiv i64 %23, 1
  %25 = sub nsw i64 %24, 1
  store i64 %25, ptr %12, align 8, !tbaa !21
  call void @llvm.lifetime.start.p0(i64 8, ptr %13) #25
  store i64 0, ptr %13, align 8, !tbaa !21
  call void @llvm.lifetime.end.p0(i64 8, ptr %13) #25
  %26 = load i64, ptr %11, align 8, !tbaa !21
  %27 = icmp slt i64 0, %26
  br i1 %27, label %28, label %62

28:                                               ; preds = %4
  call void @llvm.lifetime.start.p0(i64 8, ptr %14) #25
  store i64 0, ptr %14, align 8, !tbaa !21
  call void @llvm.lifetime.start.p0(i64 8, ptr %15) #25
  %29 = load i64, ptr %12, align 8, !tbaa !21
  store i64 %29, ptr %15, align 8, !tbaa !21
  call void @llvm.lifetime.start.p0(i64 8, ptr %16) #25
  store i64 1, ptr %16, align 8, !tbaa !21
  call void @llvm.lifetime.start.p0(i64 4, ptr %17) #25
  store i32 0, ptr %17, align 4, !tbaa !9
  call void @llvm.lifetime.start.p0(i64 8, ptr %18) #25
  %30 = load ptr, ptr %5, align 8
  %31 = load i32, ptr %30, align 4, !tbaa !9
  call void @__kmpc_for_static_init_8(ptr @1, i32 %31, i32 34, ptr %17, ptr %14, ptr %15, ptr %16, i64 1, i64 1)
  %32 = load i64, ptr %15, align 8, !tbaa !21
  %33 = load i64, ptr %12, align 8, !tbaa !21
  %34 = icmp sgt i64 %32, %33
  br i1 %34, label %35, label %37

35:                                               ; preds = %28
  %36 = load i64, ptr %12, align 8, !tbaa !21
  br label %39

37:                                               ; preds = %28
  %38 = load i64, ptr %15, align 8, !tbaa !21
  br label %39

39:                                               ; preds = %37, %35
  %40 = phi i64 [ %36, %35 ], [ %38, %37 ]
  store i64 %40, ptr %15, align 8, !tbaa !21
  %41 = load i64, ptr %14, align 8, !tbaa !21
  store i64 %41, ptr %10, align 8, !tbaa !21
  br label %42

42:                                               ; preds = %55, %39
  %43 = load i64, ptr %10, align 8, !tbaa !21
  %44 = load i64, ptr %15, align 8, !tbaa !21
  %45 = icmp sle i64 %43, %44
  br i1 %45, label %47, label %46

46:                                               ; preds = %42
  br label %58

47:                                               ; preds = %42
  %48 = load i64, ptr %10, align 8, !tbaa !21
  %49 = mul nsw i64 %48, 1
  %50 = add nsw i64 0, %49
  store i64 %50, ptr %18, align 8, !tbaa !21
  %51 = load ptr, ptr %9, align 8, !tbaa !32
  %52 = load i64, ptr %18, align 8, !tbaa !21
  invoke void @"_ZZN6open3d1t8geometry6kernel10voxel_grid16EstimateRangeCPUERKNS_4core6TensorERS5_S7_S7_iiilfffS8_ENK3$_1clEl"(ptr noundef nonnull align 8 dereferenceable(72) %51, i64 noundef %52)
          to label %53 unwind label %63

53:                                               ; preds = %47
  br label %54

54:                                               ; preds = %53
  br label %55

55:                                               ; preds = %54
  %56 = load i64, ptr %10, align 8, !tbaa !21
  %57 = add nsw i64 %56, 1
  store i64 %57, ptr %10, align 8, !tbaa !21
  br label %42

58:                                               ; preds = %46
  br label %59

59:                                               ; preds = %58
  %60 = load ptr, ptr %5, align 8
  %61 = load i32, ptr %60, align 4, !tbaa !9
  call void @__kmpc_for_static_fini(ptr @1, i32 %61)
  call void @llvm.lifetime.end.p0(i64 8, ptr %18) #25
  call void @llvm.lifetime.end.p0(i64 4, ptr %17) #25
  call void @llvm.lifetime.end.p0(i64 8, ptr %16) #25
  call void @llvm.lifetime.end.p0(i64 8, ptr %15) #25
  call void @llvm.lifetime.end.p0(i64 8, ptr %14) #25
  br label %62

62:                                               ; preds = %59, %4
  call void @llvm.lifetime.end.p0(i64 8, ptr %12) #25
  call void @llvm.lifetime.end.p0(i64 8, ptr %11) #25
  call void @llvm.lifetime.end.p0(i64 8, ptr %10) #25
  ret void

63:                                               ; preds = %47
  %64 = landingpad { ptr, i32 }
          catch ptr null
  %65 = extractvalue { ptr, i32 } %64, 0
  call void @__clang_call_terminate(ptr %65) #32
  unreachable
}