; Function Attrs: alwaysinline norecurse nounwind ssp uwtable
define internal void @"_ZN6open3d4core15ParallelForCPU_IZNS_1t8geometry6kernel10voxel_grid16EstimateRangeCPUERKNS0_6TensorERS6_S8_S8_iiilfffS9_E3$_1EEvRKNS0_6DeviceElRKT_.omp_outlined"(ptr noalias noundef readonly captures(none) %0, ptr noalias readnone captures(none) %1, ptr noundef nonnull readonly align 8 captures(none) dereferenceable(8) %2, ptr noundef nonnull readonly align 8 captures(none) dereferenceable(72) %3) #24 personality ptr @__gxx_personality_v0 {
  %5 = alloca i64, align 8
  %6 = alloca i64, align 8
  %7 = alloca i64, align 8
  %8 = alloca i32, align 4
  %9 = load i64, ptr %2, align 8, !tbaa !12
  %10 = icmp sgt i64 %9, 0
  br i1 %10, label %11, label %39

11:                                               ; preds = %4
  %12 = add nsw i64 %9, -1
  call void @llvm.lifetime.start.p0(i64 8, ptr nonnull %5) #25
  store i64 0, ptr %5, align 8, !tbaa !12
  call void @llvm.lifetime.start.p0(i64 8, ptr nonnull %6) #25
  store i64 %12, ptr %6, align 8, !tbaa !12
  call void @llvm.lifetime.start.p0(i64 8, ptr nonnull %7) #25
  store i64 1, ptr %7, align 8, !tbaa !12
  call void @llvm.lifetime.start.p0(i64 4, ptr nonnull %8) #25
  store i32 0, ptr %8, align 4, !tbaa !19
  %13 = load i32, ptr %0, align 4, !tbaa !19
  call void @__kmpc_for_static_init_8(ptr nonnull @1, i32 %13, i32 34, ptr nonnull %8, ptr nonnull %5, ptr nonnull %6, ptr nonnull %7, i64 1, i64 1)
  %14 = load i64, ptr %6, align 8, !tbaa !12
  %15 = call i64 @llvm.smin.i64(i64 %14, i64 %12)
  store i64 %15, ptr %6, align 8, !tbaa !12
  %16 = load i64, ptr %5, align 8, !tbaa !12
  %.not13 = icmp sgt i64 %16, %15
  br i1 %.not13, label %._crit_edge, label %.lr.ph

.lr.ph:                                           ; preds = %11
  %17 = load i32, ptr %3, align 8, !tbaa !675
  %18 = sext i32 %17 to i64
  %19 = getelementptr inbounds nuw i8, ptr %3, i64 8
  %20 = getelementptr inbounds nuw i8, ptr %3, i64 40
  %21 = load i64, ptr %20, align 8, !tbaa !12
  %22 = load ptr, ptr %19, align 8, !tbaa !695
  %23 = getelementptr inbounds nuw i8, ptr %3, i64 16
  %24 = load i64, ptr %23, align 8, !tbaa !692
  %25 = getelementptr inbounds nuw i8, ptr %3, i64 64
  %26 = getelementptr inbounds nuw i8, ptr %3, i64 68
  br label %27

27:                                               ; preds = %.lr.ph, %27
  %.014 = phi i64 [ %16, %.lr.ph ], [ %38, %27 ]
  %28 = sdiv i64 %.014, %18
  %29 = srem i64 %.014, %18
  %sext6.i = shl i64 %28, 32
  %30 = ashr exact i64 %sext6.i, 32
  %31 = mul nsw i64 %21, %30
  %32 = add nsw i64 %31, %29
  %33 = mul nsw i64 %32, %24
  %34 = getelementptr inbounds i8, ptr %22, i64 %33
  %35 = load float, ptr %25, align 8, !tbaa !677
  store float %35, ptr %34, align 4, !tbaa !653
  %36 = load float, ptr %26, align 4, !tbaa !678
  %37 = getelementptr inbounds nuw i8, ptr %34, i64 4
  store float %36, ptr %37, align 4, !tbaa !653
  %38 = add i64 %.014, 1
  %exitcond.not = icmp eq i64 %.014, %15
  br i1 %exitcond.not, label %._crit_edge, label %27

._crit_edge:                                      ; preds = %27, %11
  call void @__kmpc_for_static_fini(ptr nonnull @1, i32 %13)
  call void @llvm.lifetime.end.p0(i64 4, ptr nonnull %8) #25
  call void @llvm.lifetime.end.p0(i64 8, ptr nonnull %7) #25
  call void @llvm.lifetime.end.p0(i64 8, ptr nonnull %6) #25
  call void @llvm.lifetime.end.p0(i64 8, ptr nonnull %5) #25
  br label %39

39:                                               ; preds = %._crit_edge, %4
  ret void
}